target datalayout = "e-m:e-p270:32:32-p271:32:32-p272:64:64-i64:64-i128:128-f80:128-n8:16:32:64-S128"
target triple = "x86_64-pc-linux-gnu"

%"class.std::__cxx11::basic_string" = type { %"struct.std::__cxx11::basic_string<char>::_Alloc_hider", i64, %union.anon }
%"struct.std::__cxx11::basic_string<char>::_Alloc_hider" = type { ptr }
%union.anon = type { i64, [8 x i8] }
%"struct.osgeo::proj::FileProperties" = type { i64, i64, %"class.std::__cxx11::basic_string", %"class.std::__cxx11::basic_string" }
%"class.osgeo::proj::NetworkFile" = type <{ %"class.osgeo::proj::File.base", [7 x i8], ptr, %"class.std::__cxx11::basic_string", ptr, i64, i64, i64, %"struct.osgeo::proj::FileProperties", ptr, i8, [7 x i8] }>
%"class.osgeo::proj::File.base" = type <{ ptr, %"class.std::__cxx11::basic_string", %"class.std::__cxx11::basic_string", i8 }>

; Function Attrs: mustprogress nounwind uwtable
define hidden noundef zeroext i1 @_ZN5osgeo4proj11NetworkFile4seekEyi(ptr noundef nonnull align 8 dereferenceable(241) %0, i64 noundef %1, i32 noundef %2) unnamed_addr #6 align 2 {
  %4 = alloca i1, align 1
  %5 = alloca ptr, align 8
  %6 = alloca i64, align 8
  %7 = alloca i32, align 4
  store ptr %0, ptr %5, align 8, !tbaa !177
  store i64 %1, ptr %6, align 8, !tbaa !77
  store i32 %2, ptr %7, align 4, !tbaa !62
  %8 = load ptr, ptr %5, align 8
  %9 = load i32, ptr %7, align 4, !tbaa !62
  %10 = icmp eq i32 %9, 0
  br i1 %10, label %11, label %14

11:                                               ; preds = %3
  %12 = load i64, ptr %6, align 8, !tbaa !77
  %13 = getelementptr inbounds nuw %"class.osgeo::proj::NetworkFile", ptr %8, i32 0, i32 5
  store i64 %12, ptr %13, align 8, !tbaa !185
  br label %32

14:                                               ; preds = %3
  %15 = load i32, ptr %7, align 4, !tbaa !62
  %16 = icmp eq i32 %15, 1
  br i1 %16, label %17, label %22

17:                                               ; preds = %14
  %18 = load i64, ptr %6, align 8, !tbaa !77
  %19 = getelementptr inbounds nuw %"class.osgeo::proj::NetworkFile", ptr %8, i32 0, i32 5
  %20 = load i64, ptr %19, align 8, !tbaa !185
  %21 = add i64 %20, %18
  store i64 %21, ptr %19, align 8, !tbaa !185
  br label %31

22:                                               ; preds = %14
  %23 = load i64, ptr %6, align 8, !tbaa !77
  %24 = icmp ne i64 %23, 0
  br i1 %24, label %25, label %26

25:                                               ; preds = %22
  store i1 false, ptr %4, align 1
  br label %33

26:                                               ; preds = %22
  %27 = getelementptr inbounds nuw %"class.osgeo::proj::NetworkFile", ptr %8, i32 0, i32 8
  %28 = getelementptr inbounds nuw %"struct.osgeo::proj::FileProperties", ptr %27, i32 0, i32 0
  %29 = load i64, ptr %28, align 8, !tbaa !201
  %30 = getelementptr inbounds nuw %"class.osgeo::proj::NetworkFile", ptr %8, i32 0, i32 5
  store i64 %29, ptr %30, align 8, !tbaa !185
  br label %31

31:                                               ; preds = %26, %17
  br label %32

32:                                               ; preds = %31, %11
  store i1 true, ptr %4, align 1
  br label %33

33:                                               ; preds = %32, %25
  %34 = load i1, ptr %4, align 1
  ret i1 %34
}