; Function Attrs: mustprogress nofree norecurse nosync nounwind willreturn memory(argmem: readwrite) uwtable
define hidden noundef zeroext i1 @_ZN5osgeo4proj11NetworkFile4seekEyi(ptr noundef nonnull align 8 captures(none) dereferenceable(241) %0, i64 noundef %1, i32 noundef %2) unnamed_addr #17 align 2 {
  switch i32 %2, label %10 [
    i32 0, label %4
    i32 1, label %6
  ]

4:                                                ; preds = %3
  %5 = getelementptr inbounds nuw i8, ptr %0, i64 128
  store i64 %1, ptr %5, align 8, !tbaa !200
  br label %15

6:                                                ; preds = %3
  %7 = getelementptr inbounds nuw i8, ptr %0, i64 128
  %8 = load i64, ptr %7, align 8, !tbaa !200
  %9 = add i64 %8, %1
  store i64 %9, ptr %7, align 8, !tbaa !200
  br label %15

10:                                               ; preds = %3
  %.not = icmp eq i64 %1, 0
  br i1 %.not, label %11, label %15

11:                                               ; preds = %10
  %12 = getelementptr inbounds nuw i8, ptr %0, i64 152
  %13 = load i64, ptr %12, align 8, !tbaa !207
  %14 = getelementptr inbounds nuw i8, ptr %0, i64 128
  store i64 %13, ptr %14, align 8, !tbaa !200
  br label %15

15:                                               ; preds = %4, %11, %6, %10
  %.0 = phi i1 [ false, %10 ], [ true, %6 ], [ true, %11 ], [ true, %4 ]
  ret i1 %.0
}